; Function Attrs: mustprogress uwtable
define noundef float @_ZNK3gmx11Constraints4rmsdEv(ptr noundef nonnull readonly align 8 captures(none) dereferenceable(8) %0) local_unnamed_addr #8 align 2 {
  %2 = load ptr, ptr %0, align 8, !tbaa !4
  %3 = getelementptr inbounds nuw i8, ptr %2, i64 56
  %4 = load ptr, ptr %3, align 8, !tbaa !250
  %.not = icmp eq ptr %4, null
  br i1 %.not, label %7, label %5

5:                                                ; preds = %1
  %6 = tail call noundef float @_ZN3gmx10lincs_rmsdEPKNS_5LincsE(ptr noundef nonnull %4)
  br label %7

7:                                                ; preds = %1, %5
  %.0 = phi float [ %6, %5 ], [ 0.000000e+00, %1 ]
  ret float %.0
}